target datalayout = "e-m:e-p270:32:32-p271:32:32-p272:64:64-i64:64-i128:128-f80:128-n8:16:32:64-S128"
target triple = "x86_64-pc-linux-gnu"

@H5_libinit_g = external global i8, align 1
@H5_libterm_g = external global i8, align 1
@.str = private unnamed_addr constant [98 x i8] c"generated/home/dtcxzyw/WorkSpace/Projects/compilers/llvm-opt-benchmark/bench/hdf5/hdf5/src/H5PL.c\00", align 1
@H5E_FUNC_g = external global i64, align 8
@H5E_CANTINIT_g = external global i64, align 8
@.str.1 = private unnamed_addr constant [30 x i8] c"library initialization failed\00", align 1
@H5E_CANTSET_g = external global i64, align 8
@.str.2 = private unnamed_addr constant [22 x i8] c"can't set API context\00", align 1
@H5E_ARGS_g = external global i64, align 8
@H5E_BADVALUE_g = external global i64, align 8
@.str.6 = private unnamed_addr constant [37 x i8] c"plugin_path parameter cannot be NULL\00", align 1
@.str.7 = private unnamed_addr constant [46 x i8] c"plugin_path parameter cannot have length zero\00", align 1
@H5E_PLUGIN_g = external global i64, align 8
@H5E_CANTINSERT_g = external global i64, align 8
@__func__.H5PLreplace = private unnamed_addr constant [12 x i8] c"H5PLreplace\00", align 1
@H5E_BADRANGE_g = external global i64, align 8
@.str.10 = private unnamed_addr constant [20 x i8] c"path table is empty\00", align 1
@.str.11 = private unnamed_addr constant [59 x i8] c"index path out of bounds for table - can't be more than %u\00", align 1
@.str.12 = private unnamed_addr constant [30 x i8] c"unable to replace search path\00", align 1

; Function Attrs: nounwind uwtable
define i32 @H5PLreplace(ptr noundef %0, i32 noundef %1) #0 {
  %3 = alloca ptr, align 8
  %4 = alloca i32, align 4
  %5 = alloca i32, align 4
  %6 = alloca i32, align 4
  %7 = alloca i8, align 1
  %8 = alloca i8, align 1
  store ptr %0, ptr %3, align 8
  store i32 %1, ptr %4, align 4
  store i32 0, ptr %6, align 4
  store i8 0, ptr %7, align 1
  store i8 0, ptr %8, align 1
  %9 = load i8, ptr @H5_libinit_g, align 1
  %10 = trunc i8 %9 to i1
  br i1 %10, label %15, label %11

11:                                               ; preds = %2
  %12 = load i8, ptr @H5_libterm_g, align 1
  %13 = trunc i8 %12 to i1
  %14 = xor i1 %13, true
  br label %15

15:                                               ; preds = %11, %2
  %16 = phi i1 [ false, %2 ], [ %14, %11 ]
  %17 = xor i1 %16, true
  %18 = xor i1 %17, true
  %19 = zext i1 %18 to i32
  %20 = sext i32 %19 to i64
  %21 = icmp ne i64 %20, 0
  br i1 %21, label %22, label %46

22:                                               ; preds = %15
  %23 = call i32 @H5_init_library()
  %24 = icmp slt i32 %23, 0
  %25 = xor i1 %24, true
  %26 = xor i1 %25, true
  %27 = zext i1 %26 to i32
  %28 = sext i32 %27 to i64
  %29 = icmp ne i64 %28, 0
  br i1 %29, label %30, label %45

30:                                               ; preds = %22
  br label %31

31:                                               ; preds = %30
  br label %32

32:                                               ; preds = %31
  br label %33

33:                                               ; preds = %32
  %34 = load i64, ptr @H5E_FUNC_g, align 8
  %35 = load i64, ptr @H5E_CANTINIT_g, align 8
  %36 = call i32 (ptr, ptr, i32, i64, i64, ptr, ...) @H5E_printf_stack(ptr noundef @.str, ptr noundef @__func__.H5PLreplace, i32 noundef 201, i64 noundef %34, i64 noundef %35, ptr noundef @.str.1)
  br label %37

37:                                               ; preds = %33
  store i8 1, ptr %8, align 1
  %38 = load i8, ptr %8, align 1
  %39 = trunc i8 %38 to i1
  %40 = zext i1 %39 to i8
  store i8 %40, ptr %8, align 1
  br label %41

41:                                               ; preds = %37
  br label %42

42:                                               ; preds = %41
  store i32 -1, ptr %6, align 4
  br label %170

43:                                               ; No predecessors!
  br label %44

44:                                               ; preds = %43
  br label %45

45:                                               ; preds = %44, %22
  br label %46

46:                                               ; preds = %45, %15
  %47 = call i32 @H5CX_push()
  %48 = icmp slt i32 %47, 0
  %49 = xor i1 %48, true
  %50 = xor i1 %49, true
  %51 = zext i1 %50 to i32
  %52 = sext i32 %51 to i64
  %53 = icmp ne i64 %52, 0
  br i1 %53, label %54, label %69

54:                                               ; preds = %46
  br label %55

55:                                               ; preds = %54
  br label %56

56:                                               ; preds = %55
  br label %57

57:                                               ; preds = %56
  %58 = load i64, ptr @H5E_FUNC_g, align 8
  %59 = load i64, ptr @H5E_CANTSET_g, align 8
  %60 = call i32 (ptr, ptr, i32, i64, i64, ptr, ...) @H5E_printf_stack(ptr noundef @.str, ptr noundef @__func__.H5PLreplace, i32 noundef 201, i64 noundef %58, i64 noundef %59, ptr noundef @.str.2)
  br label %61

61:                                               ; preds = %57
  store i8 1, ptr %8, align 1
  %62 = load i8, ptr %8, align 1
  %63 = trunc i8 %62 to i1
  %64 = zext i1 %63 to i8
  store i8 %64, ptr %8, align 1
  br label %65

65:                                               ; preds = %61
  br label %66

66:                                               ; preds = %65
  store i32 -1, ptr %6, align 4
  br label %170

67:                                               ; No predecessors!
  br label %68

68:                                               ; preds = %67
  br label %70

69:                                               ; preds = %46
  store i8 1, ptr %7, align 1
  br label %70

70:                                               ; preds = %69, %68
  %71 = call i32 @H5E_clear_stack()
  %72 = load ptr, ptr %3, align 8
  %73 = icmp eq ptr null, %72
  br i1 %73, label %74, label %89

74:                                               ; preds = %70
  br label %75

75:                                               ; preds = %74
  br label %76

76:                                               ; preds = %75
  br label %77

77:                                               ; preds = %76
  %78 = load i64, ptr @H5E_ARGS_g, align 8
  %79 = load i64, ptr @H5E_BADVALUE_g, align 8
  %80 = call i32 (ptr, ptr, i32, i64, i64, ptr, ...) @H5E_printf_stack(ptr noundef @.str, ptr noundef @__func__.H5PLreplace, i32 noundef 205, i64 noundef %78, i64 noundef %79, ptr noundef @.str.6)
  br label %81

81:                                               ; preds = %77
  store i8 1, ptr %8, align 1
  %82 = load i8, ptr %8, align 1
  %83 = trunc i8 %82 to i1
  %84 = zext i1 %83 to i8
  store i8 %84, ptr %8, align 1
  br label %85

85:                                               ; preds = %81
  br label %86

86:                                               ; preds = %85
  store i32 -1, ptr %6, align 4
  br label %170

87:                                               ; No predecessors!
  br label %88

88:                                               ; preds = %87
  br label %89

89:                                               ; preds = %88, %70
  %90 = load ptr, ptr %3, align 8
  %91 = call i64 @strlen(ptr noundef %90) #4
  %92 = icmp eq i64 0, %91
  br i1 %92, label %93, label %108

93:                                               ; preds = %89
  br label %94

94:                                               ; preds = %93
  br label %95

95:                                               ; preds = %94
  br label %96

96:                                               ; preds = %95
  %97 = load i64, ptr @H5E_ARGS_g, align 8
  %98 = load i64, ptr @H5E_BADVALUE_g, align 8
  %99 = call i32 (ptr, ptr, i32, i64, i64, ptr, ...) @H5E_printf_stack(ptr noundef @.str, ptr noundef @__func__.H5PLreplace, i32 noundef 207, i64 noundef %97, i64 noundef %98, ptr noundef @.str.7)
  br label %100

100:                                              ; preds = %96
  store i8 1, ptr %8, align 1
  %101 = load i8, ptr %8, align 1
  %102 = trunc i8 %101 to i1
  %103 = zext i1 %102 to i8
  store i8 %103, ptr %8, align 1
  br label %104

104:                                              ; preds = %100
  br label %105

105:                                              ; preds = %104
  store i32 -1, ptr %6, align 4
  br label %170

106:                                              ; No predecessors!
  br label %107

107:                                              ; preds = %106
  br label %108

108:                                              ; preds = %107, %89
  %109 = call i32 @H5PL__get_num_paths()
  store i32 %109, ptr %5, align 4
  %110 = load i32, ptr %5, align 4
  %111 = icmp eq i32 0, %110
  br i1 %111, label %112, label %127

112:                                              ; preds = %108
  br label %113

113:                                              ; preds = %112
  br label %114

114:                                              ; preds = %113
  br label %115

115:                                              ; preds = %114
  %116 = load i64, ptr @H5E_ARGS_g, align 8
  %117 = load i64, ptr @H5E_BADRANGE_g, align 8
  %118 = call i32 (ptr, ptr, i32, i64, i64, ptr, ...) @H5E_printf_stack(ptr noundef @.str, ptr noundef @__func__.H5PLreplace, i32 noundef 212, i64 noundef %116, i64 noundef %117, ptr noundef @.str.10)
  br label %119

119:                                              ; preds = %115
  store i8 1, ptr %8, align 1
  %120 = load i8, ptr %8, align 1
  %121 = trunc i8 %120 to i1
  %122 = zext i1 %121 to i8
  store i8 %122, ptr %8, align 1
  br label %123

123:                                              ; preds = %119
  br label %124

124:                                              ; preds = %123
  store i32 -1, ptr %6, align 4
  br label %170

125:                                              ; No predecessors!
  br label %126

126:                                              ; preds = %125
  br label %149

127:                                              ; preds = %108
  %128 = load i32, ptr %4, align 4
  %129 = load i32, ptr %5, align 4
  %130 = icmp uge i32 %128, %129
  br i1 %130, label %131, label %148

131:                                              ; preds = %127
  br label %132

132:                                              ; preds = %131
  br label %133

133:                                              ; preds = %132
  br label %134

134:                                              ; preds = %133
  %135 = load i64, ptr @H5E_ARGS_g, align 8
  %136 = load i64, ptr @H5E_BADRANGE_g, align 8
  %137 = load i32, ptr %5, align 4
  %138 = sub i32 %137, 1
  %139 = call i32 (ptr, ptr, i32, i64, i64, ptr, ...) @H5E_printf_stack(ptr noundef @.str, ptr noundef @__func__.H5PLreplace, i32 noundef 215, i64 noundef %135, i64 noundef %136, ptr noundef @.str.11, i32 noundef %138)
  br label %140

140:                                              ; preds = %134
  store i8 1, ptr %8, align 1
  %141 = load i8, ptr %8, align 1
  %142 = trunc i8 %141 to i1
  %143 = zext i1 %142 to i8
  store i8 %143, ptr %8, align 1
  br label %144

144:                                              ; preds = %140
  br label %145

145:                                              ; preds = %144
  store i32 -1, ptr %6, align 4
  br label %170

146:                                              ; No predecessors!
  br label %147

147:                                              ; preds = %146
  br label %148

148:                                              ; preds = %147, %127
  br label %149

149:                                              ; preds = %148, %126
  %150 = load ptr, ptr %3, align 8
  %151 = load i32, ptr %4, align 4
  %152 = call i32 @H5PL__replace_path(ptr noundef %150, i32 noundef %151)
  %153 = icmp slt i32 %152, 0
  br i1 %153, label %154, label %169

154:                                              ; preds = %149
  br label %155

155:                                              ; preds = %154
  br label %156

156:                                              ; preds = %155
  br label %157

157:                                              ; preds = %156
  %158 = load i64, ptr @H5E_PLUGIN_g, align 8
  %159 = load i64, ptr @H5E_CANTINSERT_g, align 8
  %160 = call i32 (ptr, ptr, i32, i64, i64, ptr, ...) @H5E_printf_stack(ptr noundef @.str, ptr noundef @__func__.H5PLreplace, i32 noundef 219, i64 noundef %158, i64 noundef %159, ptr noundef @.str.12)
  br label %161

161:                                              ; preds = %157
  store i8 1, ptr %8, align 1
  %162 = load i8, ptr %8, align 1
  %163 = trunc i8 %162 to i1
  %164 = zext i1 %163 to i8
  store i8 %164, ptr %8, align 1
  br label %165

165:                                              ; preds = %161
  br label %166

166:                                              ; preds = %165
  store i32 -1, ptr %6, align 4
  br label %170

167:                                              ; No predecessors!
  br label %168

168:                                              ; preds = %167
  br label %169

169:                                              ; preds = %168, %149
  br label %170

170:                                              ; preds = %169, %166, %145, %124, %105, %86, %66, %42
  %171 = load i8, ptr %7, align 1
  %172 = trunc i8 %171 to i1
  %173 = xor i1 %172, true
  %174 = xor i1 %173, true
  %175 = zext i1 %174 to i32
  %176 = sext i32 %175 to i64
  %177 = icmp ne i64 %176, 0
  br i1 %177, label %178, label %180

178:                                              ; preds = %170
  %179 = call i32 @H5CX_pop(i1 noundef zeroext true)
  store i8 0, ptr %7, align 1
  br label %180

180:                                              ; preds = %178, %170
  %181 = load i8, ptr %8, align 1
  %182 = trunc i8 %181 to i1
  %183 = xor i1 %182, true
  %184 = xor i1 %183, true
  %185 = zext i1 %184 to i32
  %186 = sext i32 %185 to i64
  %187 = icmp ne i64 %186, 0
  br i1 %187, label %188, label %190

188:                                              ; preds = %180
  %189 = call i32 @H5E_dump_api_stack()
  br label %190

190:                                              ; preds = %188, %180
  %191 = load i32, ptr %6, align 4
  ret i32 %191
}