; Function Attrs: nounwind uwtable
define range(i32 -1, 1) i32 @H5PLreplace(ptr noundef %0, i32 noundef %1) local_unnamed_addr #0 {
  %3 = load i8, ptr @H5_libinit_g, align 1
  %4 = trunc i8 %3 to i1
  %5 = load i8, ptr @H5_libterm_g, align 1
  %6 = trunc i8 %5 to i1
  %7 = select i1 %4, i1 true, i1 %6
  br i1 %7, label %15, label %8

8:                                                ; preds = %2
  %9 = tail call i32 @H5_init_library() #4
  %10 = icmp slt i32 %9, 0
  br i1 %10, label %11, label %15

11:                                               ; preds = %8
  %12 = load i64, ptr @H5E_FUNC_g, align 8
  %13 = load i64, ptr @H5E_CANTINIT_g, align 8
  %14 = tail call i32 (ptr, ptr, i32, i64, i64, ptr, ...) @H5E_printf_stack(ptr noundef nonnull @.str, ptr noundef nonnull @__func__.H5PLreplace, i32 noundef 201, i64 noundef %12, i64 noundef %13, ptr noundef nonnull @.str.1) #4
  br label %.thread30

15:                                               ; preds = %8, %2
  %16 = tail call i32 @H5CX_push() #4
  %17 = icmp slt i32 %16, 0
  br i1 %17, label %18, label %22

18:                                               ; preds = %15
  %19 = load i64, ptr @H5E_FUNC_g, align 8
  %20 = load i64, ptr @H5E_CANTSET_g, align 8
  %21 = tail call i32 (ptr, ptr, i32, i64, i64, ptr, ...) @H5E_printf_stack(ptr noundef nonnull @.str, ptr noundef nonnull @__func__.H5PLreplace, i32 noundef 201, i64 noundef %19, i64 noundef %20, ptr noundef nonnull @.str.2) #4
  br label %.thread30

22:                                               ; preds = %15
  %23 = tail call i32 @H5E_clear_stack() #4
  %24 = icmp eq ptr %0, null
  br i1 %24, label %25, label %29

25:                                               ; preds = %22
  %26 = load i64, ptr @H5E_ARGS_g, align 8
  %27 = load i64, ptr @H5E_BADVALUE_g, align 8
  %28 = tail call i32 (ptr, ptr, i32, i64, i64, ptr, ...) @H5E_printf_stack(ptr noundef nonnull @.str, ptr noundef nonnull @__func__.H5PLreplace, i32 noundef 205, i64 noundef %26, i64 noundef %27, ptr noundef nonnull @.str.6) #4
  br label %.thread36

29:                                               ; preds = %22
  %char0 = load i8, ptr %0, align 1
  %30 = icmp eq i8 %char0, 0
  br i1 %30, label %31, label %35

31:                                               ; preds = %29
  %32 = load i64, ptr @H5E_ARGS_g, align 8
  %33 = load i64, ptr @H5E_BADVALUE_g, align 8
  %34 = tail call i32 (ptr, ptr, i32, i64, i64, ptr, ...) @H5E_printf_stack(ptr noundef nonnull @.str, ptr noundef nonnull @__func__.H5PLreplace, i32 noundef 207, i64 noundef %32, i64 noundef %33, ptr noundef nonnull @.str.7) #4
  br label %.thread36

35:                                               ; preds = %29
  %36 = tail call i32 @H5PL__get_num_paths() #4
  %37 = icmp eq i32 %36, 0
  br i1 %37, label %38, label %42

38:                                               ; preds = %35
  %39 = load i64, ptr @H5E_ARGS_g, align 8
  %40 = load i64, ptr @H5E_BADRANGE_g, align 8
  %41 = tail call i32 (ptr, ptr, i32, i64, i64, ptr, ...) @H5E_printf_stack(ptr noundef nonnull @.str, ptr noundef nonnull @__func__.H5PLreplace, i32 noundef 212, i64 noundef %39, i64 noundef %40, ptr noundef nonnull @.str.10) #4
  br label %.thread36

42:                                               ; preds = %35
  %.not = icmp ugt i32 %36, %1
  br i1 %.not, label %48, label %43

43:                                               ; preds = %42
  %44 = load i64, ptr @H5E_ARGS_g, align 8
  %45 = load i64, ptr @H5E_BADRANGE_g, align 8
  %46 = add i32 %36, -1
  %47 = tail call i32 (ptr, ptr, i32, i64, i64, ptr, ...) @H5E_printf_stack(ptr noundef nonnull @.str, ptr noundef nonnull @__func__.H5PLreplace, i32 noundef 215, i64 noundef %44, i64 noundef %45, ptr noundef nonnull @.str.11, i32 noundef %46) #4
  br label %.thread36

48:                                               ; preds = %42
  %49 = tail call i32 @H5PL__replace_path(ptr noundef nonnull %0, i32 noundef %1) #4
  %50 = icmp slt i32 %49, 0
  br i1 %50, label %51, label %56

51:                                               ; preds = %48
  %52 = load i64, ptr @H5E_PLUGIN_g, align 8
  %53 = load i64, ptr @H5E_CANTINSERT_g, align 8
  %54 = tail call i32 (ptr, ptr, i32, i64, i64, ptr, ...) @H5E_printf_stack(ptr noundef nonnull @.str, ptr noundef nonnull @__func__.H5PLreplace, i32 noundef 219, i64 noundef %52, i64 noundef %53, ptr noundef nonnull @.str.12) #4
  br label %.thread36

.thread36:                                        ; preds = %51, %43, %38, %31, %25
  %55 = tail call i32 @H5CX_pop(i1 noundef zeroext true) #4
  br label %.thread30

56:                                               ; preds = %48
  %57 = tail call i32 @H5CX_pop(i1 noundef zeroext true) #4
  br label %59

.thread30:                                        ; preds = %18, %11, %.thread36
  %58 = tail call i32 @H5E_dump_api_stack() #4
  br label %59

59:                                               ; preds = %56, %.thread30
  %.0182533 = phi i32 [ -1, %.thread30 ], [ 0, %56 ]
  ret i32 %.0182533
}